target datalayout = "e-m:e-p270:32:32-p271:32:32-p272:64:64-i64:64-i128:128-f80:128-n8:16:32:64-S128"
target triple = "x86_64-pc-linux-gnu"

%"class.std::basic_ios" = type { %"class.std::ios_base", ptr, i8, i8, ptr, ptr, ptr, ptr }
%"class.std::ios_base" = type { ptr, i64, i64, i32, i32, i32, ptr, %"struct.std::ios_base::_Words", [8 x %"struct.std::ios_base::_Words"], i32, ptr, %"class.std::locale" }
%"struct.std::ios_base::_Words" = type { ptr, i64 }
%"class.std::locale" = type { ptr }
%"struct.std::_Rb_tree_header" = type { %"struct.std::_Rb_tree_node_base", i64 }
%"struct.std::_Rb_tree_node_base" = type { i32, ptr, ptr, ptr }
%"class.std::set" = type { %"class.std::_Rb_tree" }
%"class.std::_Rb_tree" = type { %"struct.std::_Rb_tree<std::__cxx11::basic_string<char>, std::__cxx11::basic_string<char>, std::_Identity<std::__cxx11::basic_string<char>>, std::less<std::__cxx11::basic_string<char>>>::_Rb_tree_impl" }
%"struct.std::_Rb_tree<std::__cxx11::basic_string<char>, std::__cxx11::basic_string<char>, std::_Identity<std::__cxx11::basic_string<char>>, std::less<std::__cxx11::basic_string<char>>>::_Rb_tree_impl" = type { [8 x i8], %"struct.std::_Rb_tree_header" }
%"class.std::__cxx11::basic_string" = type { %"struct.std::__cxx11::basic_string<char>::_Alloc_hider", i64, %union.anon }
%"struct.std::__cxx11::basic_string<char>::_Alloc_hider" = type { ptr }
%union.anon = type { i64, [8 x i8] }
%class.V3ErrorGuarded = type { i8, i32, %class.V3ErrorCode, i8, %"class.std::set", ptr, i8, i32, i32, %"struct.std::array", i8, %"struct.std::array", i32, i32, i8, %"class.std::__cxx11::basic_ostringstream", %class.V3MutexImp }
%class.V3ErrorCode = type { i8 }
%"struct.std::array" = type { [121 x i8] }
%"class.std::__cxx11::basic_ostringstream" = type { %"class.std::basic_ostream.base", %"class.std::__cxx11::basic_stringbuf", %"class.std::basic_ios" }
%"class.std::basic_ostream.base" = type { ptr }
%"class.std::__cxx11::basic_stringbuf" = type { %"class.std::basic_streambuf", i32, %"class.std::__cxx11::basic_string" }
%"class.std::basic_streambuf" = type { ptr, ptr, ptr, ptr, ptr, ptr, ptr, %"class.std::locale" }
%class.V3MutexImp = type { %"class.std::recursive_mutex" }
%"class.std::recursive_mutex" = type { %"class.std::__recursive_mutex_base" }
%"class.std::__recursive_mutex_base" = type { %union.pthread_mutex_t }
%union.pthread_mutex_t = type { %struct.__pthread_mutex_s }
%struct.__pthread_mutex_s = type { i32, i32, i32, i32, i32, i16, i16, %struct.__pthread_internal_list }
%struct.__pthread_internal_list = type { ptr, ptr }

@.str = private unnamed_addr constant [11 x i8] c"GUARDED_BY\00", section "llvm.metadata"
@.str.2 = private unnamed_addr constant [102 x i8] c"/home/dtcxzyw/WorkSpace/Projects/compilers/llvm-opt-benchmark/bench/verilator/verilator/src/V3Error.h\00", section "llvm.metadata"

; Function Attrs: mustprogress nounwind uwtable
define linkonce_odr dso_local noundef nonnull align 1 dereferenceable(1) ptr @_ZNSt14__array_traitsIbLm121EE6_S_refERA121_Kbm(ptr noundef nonnull align 1 dereferenceable(121) %0, i64 noundef %1) #6 comdat align 2 {
  %3 = alloca ptr, align 8
  %4 = alloca i64, align 8
  store ptr %0, ptr %3, align 8, !tbaa !162
  store i64 %1, ptr %4, align 8, !tbaa !93
  %5 = load ptr, ptr %3, align 8, !tbaa !162
  %6 = load i64, ptr %4, align 8, !tbaa !93
  %7 = getelementptr inbounds nuw [121 x i8], ptr %5, i64 0, i64 %6
  ret ptr %7
}

; Function Attrs: mustprogress nounwind uwtable
define linkonce_odr dso_local noundef nonnull align 1 dereferenceable(1) ptr @_ZNSt5arrayIbLm121EEixEm(ptr noundef nonnull align 1 dereferenceable(121) %0, i64 noundef %1) #6 comdat align 2 {
  %3 = alloca ptr, align 8
  %4 = alloca i64, align 8
  store ptr %0, ptr %3, align 8, !tbaa !110
  store i64 %1, ptr %4, align 8, !tbaa !93
  %5 = load ptr, ptr %3, align 8
  %6 = getelementptr inbounds nuw %"struct.std::array", ptr %5, i32 0, i32 0
  %7 = load i64, ptr %4, align 8, !tbaa !93
  %8 = call noundef nonnull align 1 dereferenceable(1) ptr @_ZNSt14__array_traitsIbLm121EE6_S_refERA121_Kbm(ptr noundef nonnull align 1 dereferenceable(121) %6, i64 noundef %7) #3
  ret ptr %8
}

; Function Attrs: mustprogress nounwind uwtable
define linkonce_odr dso_local noundef zeroext i1 @_ZN14V3ErrorGuarded12pretendErrorEi(ptr noundef nonnull align 8 dereferenceable(760) %0, i32 noundef %1) #6 comdat align 2 {
  %3 = alloca ptr, align 8
  %4 = alloca i32, align 4
  store ptr %0, ptr %3, align 8, !tbaa !20
  store i32 %1, ptr %4, align 4, !tbaa !13
  %5 = load ptr, ptr %3, align 8
  %6 = getelementptr inbounds nuw %class.V3ErrorGuarded, ptr %5, i32 0, i32 9
  %7 = call ptr @llvm.ptr.annotation.p0.p0(ptr %6, ptr @.str, ptr @.str.2, i32 329, ptr null)
  %8 = load i32, ptr %4, align 4, !tbaa !13
  %9 = sext i32 %8 to i64
  %10 = call noundef nonnull align 1 dereferenceable(1) ptr @_ZNSt5arrayIbLm121EEixEm(ptr noundef nonnull align 1 dereferenceable(121) %7, i64 noundef %9) #3
  %11 = load i8, ptr %10, align 1, !tbaa !22, !range !24, !noundef !25
  %12 = trunc i8 %11 to i1
  ret i1 %12
}

; Function Attrs: mustprogress nounwind uwtable
define linkonce_odr dso_local noundef zeroext i8 @_ZNK11V3ErrorCodecvNS_2enEEv(ptr noundef nonnull align 1 dereferenceable(1) %0) #6 comdat align 2 {
  %2 = alloca ptr, align 8
  store ptr %0, ptr %2, align 8, !tbaa !9
  %3 = load ptr, ptr %2, align 8
  %4 = getelementptr inbounds nuw %class.V3ErrorCode, ptr %3, i32 0, i32 0
  %5 = load i8, ptr %4, align 1, !tbaa !15
  ret i8 %5
}

; Function Attrs: mustprogress nounwind uwtable
define linkonce_odr dso_local noundef zeroext i1 @_ZeqRK11V3ErrorCodeNS_2enE(ptr noundef nonnull align 1 dereferenceable(1) %0, i8 noundef zeroext %1) #6 comdat {
  %3 = alloca ptr, align 8
  %4 = alloca i8, align 1
  store ptr %0, ptr %3, align 8, !tbaa !9
  store i8 %1, ptr %4, align 1, !tbaa !26
  %5 = load ptr, ptr %3, align 8, !tbaa !9
  %6 = getelementptr inbounds nuw %class.V3ErrorCode, ptr %5, i32 0, i32 0
  %7 = load i8, ptr %6, align 1, !tbaa !15
  %8 = zext i8 %7 to i32
  %9 = load i8, ptr %4, align 1, !tbaa !26
  %10 = zext i8 %9 to i32
  %11 = icmp eq i32 %8, %10
  ret i1 %11
}

; Function Attrs: mustprogress nounwind uwtable
define linkonce_odr dso_local noundef zeroext i1 @_ZNK11V3ErrorCode9hardErrorEv(ptr noundef nonnull align 1 dereferenceable(1) %0) #6 comdat align 2 {
  %2 = alloca ptr, align 8
  store ptr %0, ptr %2, align 8, !tbaa !9
  %3 = load ptr, ptr %2, align 8
  %4 = getelementptr inbounds nuw %class.V3ErrorCode, ptr %3, i32 0, i32 0
  %5 = load i8, ptr %4, align 1, !tbaa !15
  %6 = zext i8 %5 to i32
  %7 = icmp ne i32 %6, 1
  br i1 %7, label %8, label %13

8:                                                ; preds = %1
  %9 = getelementptr inbounds nuw %class.V3ErrorCode, ptr %3, i32 0, i32 0
  %10 = load i8, ptr %9, align 1, !tbaa !15
  %11 = zext i8 %10 to i32
  %12 = icmp slt i32 %11, 20
  br label %13

13:                                               ; preds = %8, %1
  %14 = phi i1 [ false, %1 ], [ %12, %8 ]
  ret i1 %14
}

; Function Attrs: mustprogress uwtable
define dso_local noundef zeroext i1 @_ZN14V3ErrorGuarded7isErrorE11V3ErrorCodeb(ptr noundef nonnull align 8 dereferenceable(760) %0, i8 %1, i1 noundef zeroext %2) #4 align 2 {
  %4 = alloca i1, align 1
  %5 = alloca %class.V3ErrorCode, align 1
  %6 = alloca ptr, align 8
  %7 = alloca i8, align 1
  %8 = getelementptr inbounds nuw %class.V3ErrorCode, ptr %5, i32 0, i32 0
  store i8 %1, ptr %8, align 1
  store ptr %0, ptr %6, align 8, !tbaa !20
  %9 = zext i1 %2 to i8
  store i8 %9, ptr %7, align 1, !tbaa !22
  %10 = load ptr, ptr %6, align 8
  %11 = call noundef zeroext i1 @_ZNK11V3ErrorCode9hardErrorEv(ptr noundef nonnull align 1 dereferenceable(1) %5)
  br i1 %11, label %12, label %13

12:                                               ; preds = %3
  store i1 true, ptr %4, align 1
  br label %28

13:                                               ; preds = %3
  %14 = load i8, ptr %7, align 1, !tbaa !22, !range !24, !noundef !25
  %15 = trunc i8 %14 to i1
  br i1 %15, label %16, label %17

16:                                               ; preds = %13
  store i1 false, ptr %4, align 1
  br label %28

17:                                               ; preds = %13
  %18 = call noundef zeroext i1 @_ZeqRK11V3ErrorCodeNS_2enE(ptr noundef nonnull align 1 dereferenceable(1) %5, i8 noundef zeroext 110)
  br i1 %18, label %21, label %19

19:                                               ; preds = %17
  %20 = call noundef zeroext i1 @_ZeqRK11V3ErrorCodeNS_2enE(ptr noundef nonnull align 1 dereferenceable(1) %5, i8 noundef zeroext 1)
  br i1 %20, label %21, label %22

21:                                               ; preds = %19, %17
  store i1 false, ptr %4, align 1
  br label %28

22:                                               ; preds = %19
  %23 = call noundef zeroext i8 @_ZNK11V3ErrorCodecvNS_2enEEv(ptr noundef nonnull align 1 dereferenceable(1) %5)
  %24 = zext i8 %23 to i32
  %25 = call noundef zeroext i1 @_ZN14V3ErrorGuarded12pretendErrorEi(ptr noundef nonnull align 8 dereferenceable(760) %10, i32 noundef %24)
  br i1 %25, label %26, label %27

26:                                               ; preds = %22
  store i1 true, ptr %4, align 1
  br label %28

27:                                               ; preds = %22
  store i1 false, ptr %4, align 1
  br label %28

28:                                               ; preds = %27, %26, %21, %16, %12
  %29 = load i1, ptr %4, align 1
  ret i1 %29
}