; Function Attrs: mustprogress nofree norecurse nosync nounwind willreturn memory(read, inaccessiblemem: readwrite) uwtable
define dso_local noundef zeroext i1 @_ZN14V3ErrorGuarded7isErrorE11V3ErrorCodeb(ptr noundef nonnull align 8 dereferenceable(760) %0, i8 %1, i1 noundef zeroext %2) #7 align 2 {
  %.not.i = icmp ne i8 %1, 1
  %4 = icmp ult i8 %1, 20
  %spec.select.i = and i1 %.not.i, %4
  %brmerge = or i1 %2, %spec.select.i
  br i1 %brmerge, label %13, label %5

5:                                                ; preds = %3
  switch i8 %1, label %6 [
    i8 110, label %13
    i8 1, label %13
  ]

6:                                                ; preds = %5
  %7 = getelementptr inbounds nuw i8, ptr %0, i64 84
  %8 = tail call ptr @llvm.ptr.annotation.p0.p0(ptr nonnull %7, ptr nonnull @.str, ptr nonnull @.str.2, i32 329, ptr null)
  %9 = zext i8 %1 to i64
  %10 = getelementptr inbounds nuw [121 x i8], ptr %8, i64 0, i64 %9
  %11 = load i8, ptr %10, align 1, !tbaa !14, !range !16, !noundef !17
  %12 = trunc nuw i8 %11 to i1
  br label %13

13:                                               ; preds = %5, %5, %3, %6
  %.0 = phi i1 [ %spec.select.i, %3 ], [ false, %5 ], [ %12, %6 ], [ false, %5 ]
  ret i1 %.0
}